target datalayout = "e-m:e-p270:32:32-p271:32:32-p272:64:64-i64:64-i128:128-f80:128-n8:16:32:64-S128"
target triple = "x86_64-pc-linux-gnu"

%struct.Vec_Int_t_ = type { i32, i32, ptr }
%struct.Vec_Ptr_t_ = type { i32, i32, ptr }
%struct.Abc_Ntk_t_ = type { i32, i32, ptr, ptr, ptr, ptr, ptr, ptr, ptr, ptr, ptr, ptr, ptr, [11 x i32], i32, i32, i32, i32, ptr, i32, ptr, ptr, i32, i32, i32, double, i32, %struct.Vec_Int_t_, ptr, ptr, ptr, ptr, ptr, float, i32, ptr, ptr, ptr, ptr, ptr, ptr, ptr, ptr, ptr, ptr, ptr, ptr, ptr, ptr, ptr, ptr, ptr, ptr, ptr, ptr, ptr }

@.str.99 = private unnamed_addr constant [50 x i8] c"Currently works only for single-output networks.\0A\00", align 1
@.str.100 = private unnamed_addr constant [39 x i8] c"The number of PIs should be the same.\0A\00", align 1
@.str.101 = private unnamed_addr constant [33 x i8] c"Interpolant computation failed.\0A\00", align 1
@.str.102 = private unnamed_addr constant [4 x i8] c"New\00", align 1

; Function Attrs: nounwind uwtable
define internal i32 @Vec_PtrSize(ptr noundef %0) #0 {
  %2 = alloca ptr, align 8
  store ptr %0, ptr %2, align 8
  %3 = load ptr, ptr %2, align 8
  %4 = getelementptr inbounds %struct.Vec_Ptr_t_, ptr %3, i32 0, i32 1
  %5 = load i32, ptr %4, align 4
  ret i32 %5
}

; Function Attrs: nounwind uwtable
define internal ptr @Abc_NtkCreatePi(ptr noundef %0) #0 {
  %2 = alloca ptr, align 8
  store ptr %0, ptr %2, align 8
  %3 = load ptr, ptr %2, align 8
  %4 = call ptr @Abc_NtkCreateObj(ptr noundef %3, i32 noundef 2)
  ret ptr %4
}

; Function Attrs: nounwind uwtable
define internal i32 @Abc_NtkCiNum(ptr noundef %0) #0 {
  %2 = alloca ptr, align 8
  store ptr %0, ptr %2, align 8
  %3 = load ptr, ptr %2, align 8
  %4 = getelementptr inbounds %struct.Abc_Ntk_t_, ptr %3, i32 0, i32 8
  %5 = load ptr, ptr %4, align 8
  %6 = call i32 @Vec_PtrSize(ptr noundef %5)
  ret i32 %6
}

; Function Attrs: nounwind uwtable
define internal i32 @Abc_NtkCoNum(ptr noundef %0) #0 {
  %2 = alloca ptr, align 8
  store ptr %0, ptr %2, align 8
  %3 = load ptr, ptr %2, align 8
  %4 = getelementptr inbounds %struct.Abc_Ntk_t_, ptr %3, i32 0, i32 9
  %5 = load ptr, ptr %4, align 8
  %6 = call i32 @Vec_PtrSize(ptr noundef %5)
  ret i32 %6
}

; Function Attrs: nounwind uwtable
define ptr @Abc_NtkInterOne(ptr noundef %0, ptr noundef %1, i32 noundef %2, i32 noundef %3) #0 {
  %5 = alloca ptr, align 8
  %6 = alloca ptr, align 8
  %7 = alloca ptr, align 8
  %8 = alloca i32, align 4
  %9 = alloca i32, align 4
  %10 = alloca ptr, align 8
  %11 = alloca ptr, align 8
  %12 = alloca ptr, align 8
  %13 = alloca ptr, align 8
  %14 = alloca ptr, align 8
  store ptr %0, ptr %6, align 8
  store ptr %1, ptr %7, align 8
  store i32 %2, ptr %8, align 4
  store i32 %3, ptr %9, align 4
  %15 = load ptr, ptr %6, align 8
  %16 = call i32 @Abc_NtkCoNum(ptr noundef %15)
  %17 = icmp ne i32 %16, 1
  br i1 %17, label %22, label %18

18:                                               ; preds = %4
  %19 = load ptr, ptr %7, align 8
  %20 = call i32 @Abc_NtkCoNum(ptr noundef %19)
  %21 = icmp ne i32 %20, 1
  br i1 %21, label %22, label %23

22:                                               ; preds = %18, %4
  call void (i32, ptr, ...) @Abc_Print(i32 noundef 1, ptr noundef @.str.99)
  store ptr null, ptr %5, align 8
  br label %67

23:                                               ; preds = %18
  %24 = load ptr, ptr %6, align 8
  %25 = call i32 @Abc_NtkCiNum(ptr noundef %24)
  %26 = load ptr, ptr %7, align 8
  %27 = call i32 @Abc_NtkCiNum(ptr noundef %26)
  %28 = icmp ne i32 %25, %27
  br i1 %28, label %29, label %30

29:                                               ; preds = %23
  call void (i32, ptr, ...) @Abc_Print(i32 noundef 1, ptr noundef @.str.100)
  store ptr null, ptr %5, align 8
  br label %67

30:                                               ; preds = %23
  %31 = load ptr, ptr %6, align 8
  %32 = call ptr @Abc_NtkToDar(ptr noundef %31, i32 noundef 0, i32 noundef 0)
  store ptr %32, ptr %11, align 8
  %33 = load ptr, ptr %11, align 8
  %34 = icmp eq ptr %33, null
  br i1 %34, label %35, label %36

35:                                               ; preds = %30
  store ptr null, ptr %5, align 8
  br label %67

36:                                               ; preds = %30
  %37 = load ptr, ptr %7, align 8
  %38 = call ptr @Abc_NtkToDar(ptr noundef %37, i32 noundef 0, i32 noundef 0)
  store ptr %38, ptr %12, align 8
  %39 = load ptr, ptr %12, align 8
  %40 = icmp eq ptr %39, null
  br i1 %40, label %41, label %42

41:                                               ; preds = %36
  store ptr null, ptr %5, align 8
  br label %67

42:                                               ; preds = %36
  %43 = load ptr, ptr %11, align 8
  %44 = load ptr, ptr %12, align 8
  %45 = load i32, ptr %8, align 4
  %46 = load i32, ptr %9, align 4
  %47 = call ptr @Aig_ManInter(ptr noundef %43, ptr noundef %44, i32 noundef %45, i32 noundef %46)
  store ptr %47, ptr %13, align 8
  %48 = load ptr, ptr %13, align 8
  %49 = icmp eq ptr %48, null
  br i1 %49, label %50, label %51

50:                                               ; preds = %42
  call void (i32, ptr, ...) @Abc_Print(i32 noundef 1, ptr noundef @.str.101)
  store ptr null, ptr %5, align 8
  br label %67

51:                                               ; preds = %42
  %52 = load ptr, ptr %11, align 8
  call void @Aig_ManStop(ptr noundef %52)
  %53 = load ptr, ptr %12, align 8
  call void @Aig_ManStop(ptr noundef %53)
  %54 = load i32, ptr %8, align 4
  %55 = icmp ne i32 %54, 0
  br i1 %55, label %56, label %61

56:                                               ; preds = %51
  %57 = load ptr, ptr %7, align 8
  %58 = call ptr @Abc_NtkCreatePi(ptr noundef %57)
  store ptr %58, ptr %14, align 8
  %59 = load ptr, ptr %14, align 8
  %60 = call ptr @Abc_ObjAssignName(ptr noundef %59, ptr noundef @.str.102, ptr noundef null)
  br label %61

61:                                               ; preds = %56, %51
  %62 = load ptr, ptr %7, align 8
  %63 = load ptr, ptr %13, align 8
  %64 = call ptr @Abc_NtkFromDar(ptr noundef %62, ptr noundef %63)
  store ptr %64, ptr %10, align 8
  %65 = load ptr, ptr %13, align 8
  call void @Aig_ManStop(ptr noundef %65)
  %66 = load ptr, ptr %10, align 8
  store ptr %66, ptr %5, align 8
  br label %67

67:                                               ; preds = %61, %50, %41, %35, %29, %22
  %68 = load ptr, ptr %5, align 8
  ret ptr %68
}