; Function Attrs: nounwind uwtable
define noundef ptr @Abc_NtkInterOne(ptr noundef %0, ptr noundef %1, i32 noundef %2, i32 noundef %3) local_unnamed_addr #1 {
  %5 = getelementptr i8, ptr %0, i64 64
  %.val30 = load ptr, ptr %5, align 8
  %6 = getelementptr i8, ptr %.val30, i64 4
  %.val30.val = load i32, ptr %6, align 4
  %.not = icmp eq i32 %.val30.val, 1
  br i1 %.not, label %7, label %10

7:                                                ; preds = %4
  %8 = getelementptr i8, ptr %1, i64 64
  %.val29 = load ptr, ptr %8, align 8
  %9 = getelementptr i8, ptr %.val29, i64 4
  %.val29.val = load i32, ptr %9, align 4
  %.not25 = icmp eq i32 %.val29.val, 1
  br i1 %.not25, label %11, label %10

10:                                               ; preds = %7, %4
  tail call void (i32, ptr, ...) @Abc_Print(i32 poison, ptr noundef nonnull @.str.99)
  br label %33

11:                                               ; preds = %7
  %12 = getelementptr i8, ptr %0, i64 56
  %.val28 = load ptr, ptr %12, align 8
  %13 = getelementptr i8, ptr %.val28, i64 4
  %.val28.val = load i32, ptr %13, align 4
  %14 = getelementptr i8, ptr %1, i64 56
  %.val = load ptr, ptr %14, align 8
  %15 = getelementptr i8, ptr %.val, i64 4
  %.val.val = load i32, ptr %15, align 4
  %.not26 = icmp eq i32 %.val28.val, %.val.val
  br i1 %.not26, label %17, label %16

16:                                               ; preds = %11
  tail call void (i32, ptr, ...) @Abc_Print(i32 poison, ptr noundef nonnull @.str.100)
  br label %33

17:                                               ; preds = %11
  %18 = tail call ptr @Abc_NtkToDar(ptr noundef nonnull %0, i32 noundef 0, i32 noundef 0)
  %19 = icmp eq ptr %18, null
  br i1 %19, label %33, label %20

20:                                               ; preds = %17
  %21 = tail call ptr @Abc_NtkToDar(ptr noundef nonnull %1, i32 noundef 0, i32 noundef 0)
  %22 = icmp eq ptr %21, null
  br i1 %22, label %33, label %23

23:                                               ; preds = %20
  %24 = tail call ptr @Aig_ManInter(ptr noundef nonnull %18, ptr noundef nonnull %21, i32 noundef %2, i32 noundef %3) #19
  %25 = icmp eq ptr %24, null
  br i1 %25, label %26, label %27

26:                                               ; preds = %23
  tail call void (i32, ptr, ...) @Abc_Print(i32 poison, ptr noundef nonnull @.str.101)
  br label %33

27:                                               ; preds = %23
  tail call void @Aig_ManStop(ptr noundef nonnull %18) #19
  tail call void @Aig_ManStop(ptr noundef nonnull %21) #19
  %.not27 = icmp eq i32 %2, 0
  br i1 %.not27, label %31, label %28

28:                                               ; preds = %27
  %29 = tail call ptr @Abc_NtkCreateObj(ptr noundef nonnull %1, i32 noundef 2) #19
  %30 = tail call ptr @Abc_ObjAssignName(ptr noundef %29, ptr noundef nonnull @.str.102, ptr noundef null) #19
  br label %31

31:                                               ; preds = %28, %27
  %32 = tail call ptr @Abc_NtkFromDar(ptr noundef nonnull %1, ptr noundef nonnull %24)
  tail call void @Aig_ManStop(ptr noundef nonnull %24) #19
  br label %33

33:                                               ; preds = %20, %17, %31, %26, %16, %10
  %.0 = phi ptr [ null, %10 ], [ null, %16 ], [ null, %26 ], [ %32, %31 ], [ null, %17 ], [ null, %20 ]
  ret ptr %.0
}